Certificate:
    Data:
        Version: 3 (0x2)
        Serial Number:
            8c:8b:7a:af:3a:71:96:94:af:56:8e:47:45:ee:14:9b
    Signature Algorithm: sha256WithRSAEncryption
        Issuer: CN=mm
        Validity
            Not Before: Jan 19 16:44:46 2023 GMT
            Not After : Apr 23 16:44:46 2025 GMT
        Subject: CN=client1.domain.tld
        Subject Public Key Info:
            Public Key Algorithm: rsaEncryption
                RSA Public-Key: (2048 bit)
                Modulus:
                    00:a4:3d:a5:98:17:11:bf:f6:f2:a6:34:39:4b:06:
                    3f:6c:b6:1a:46:45:42:f9:07:f3:7e:c6:f9:ec:a7:
                    1f:bf:76:ec:4e:58:9f:75:95:38:15:77:d7:53:bd:
                    d9:93:ca:45:ff:51:fd:07:4b:f7:fe:e1:9b:19:88:
                    f5:be:a0:b7:b1:78:2a:4a:c4:24:af:2a:c2:4b:1d:
                    56:a6:34:bc:be:b8:df:ce:1e:e6:56:5c:be:44:a7:
                    c6:40:4b:7d:81:a0:cc:40:e4:8d:9c:36:a6:4f:d4:
                    f8:1c:0d:73:cc:3a:2b:28:39:d1:26:76:a4:6e:c3:
                    d6:eb:5d:0e:47:9b:f0:5a:11:66:20:9d:b0:56:ea:
                    10:5a:3e:d1:44:a6:7f:96:5c:a5:9c:a8:81:32:52:
                    c7:96:f4:db:a2:94:ee:72:25:b1:c0:ff:43:64:49:
                    b2:49:28:9b:5a:c9:77:8c:46:4a:22:c4:bc:b2:08:
                    4d:47:19:be:4d:cb:ef:0a:16:bb:46:bb:b9:7f:b1:
                    3b:c5:82:03:12:21:c5:8f:00:2e:c8:95:08:60:2c:
                    cd:fd:cc:50:51:cb:16:1c:e3:8d:ed:4e:76:40:ef:
                    2b:8f:11:dc:60:6b:c0:00:1c:fb:1e:42:79:a2:b1:
                    36:6d:39:d7:9f:e7:21:91:7e:9d:29:eb:8c:b8:a6:
                    78:39
                Exponent: 65537 (0x10001)
        X509v3 extensions:
            X509v3 Basic Constraints: 
                CA:FALSE
            X509v3 Subject Key Identifier: 
                20:82:DD:24:35:5D:31:F5:00:7D:28:98:87:AC:01:77:F2:7D:E9:0C
            X509v3 Authority Key Identifier: 
                keyid:12:8C:C3:CB:08:B4:76:31:9D:3B:30:05:41:1A:BC:90:96:BA:83:53
                DirName:/CN=mm
                serial:9D:28:B0:A1:A5:0B:C8:53

            X509v3 Extended Key Usage: 
                TLS Web Client Authentication
            X509v3 Key Usage: 
                Digital Signature
    Signature Algorithm: sha256WithRSAEncryption
         3b:57:d9:22:f0:29:36:f6:02:5b:cc:8c:1f:65:71:6b:7b:64:
         f2:17:3d:c8:9c:d9:4a:1e:bf:2b:9e:2b:17:24:81:22:04:2f:
         03:3c:a0:f7:70:0d:05:6a:0e:71:9e:bc:3a:bb:17:25:3a:c8:
         9d:40:7e:f1:79:4f:7a:f3:5e:c2:70:e7:a8:6f:54:9f:bf:c2:
         96:d1:61:80:90:b3:4c:0b:74:e6:54:1e:ff:2c:e7:bb:4c:56:
         3c:95:9a:80:31:7e:ea:94:23:2b:fc:56:b1:d2:2e:61:67:01:
         34:d8:a6:b2:e6:66:f1:cb:b9:bf:24:0f:d6:f1:74:2c:1b:1e:
         cc:ab:58:57:45:a8:cc:81:76:9b:c4:b0:1f:07:d9:04:e7:b2:
         8a:ca:6b:21:77:51:ae:8d:f4:fd:31:56:f4:11:e1:a1:de:f5:
         71:ec:f7:db:f5:51:40:78:de:28:6e:69:1d:8a:f1:e1:d9:4b:
         3a:de:0b:46:bd:28:bb:45:24:c7:73:18:76:5e:e2:f8:12:08:
         bc:6b:25:b9:a2:3b:50:3a:81:ec:7b:55:83:6e:bf:6b:d5:c0:
         03:3c:01:e6:bb:41:4f:6c:e6:96:1c:56:74:82:b8:ae:a2:30:
         b5:79:17:52:d8:7e:9d:a3:ec:4c:c3:e1:92:51:c6:55:cf:47:
         32:d0:a0:24
-----BEGIN CERTIFICATE-----
MIIDRDCCAiygAwIBAgIRAIyLeq86cZaUr1aOR0XuFJswDQYJKoZIhvcNAQELBQAw
DTELMAkGA1UEAwwCbW0wHhcNMjMwMTE5MTY0NDQ2WhcNMjUwNDIzMTY0NDQ2WjAd
MRswGQYDVQQDDBJjbGllbnQxLmRvbWFpbi50bGQwggEiMA0GCSqGSIb3DQEBAQUA
A4IBDwAwggEKAoIBAQCkPaWYFxG/9vKmNDlLBj9sthpGRUL5B/N+xvnspx+/duxO
WJ91lTgVd9dTvdmTykX/Uf0HS/f+4ZsZiPW+oLexeCpKxCSvKsJLHVamNLy+uN/O
HuZWXL5Ep8ZAS32BoMxA5I2cNqZP1PgcDXPMOisoOdEmdqRuw9brXQ5Hm/BaEWYg
nbBW6hBaPtFEpn+WXKWcqIEyUseW9NuilO5yJbHA/0NkSbJJKJtayXeMRkoixLyy
CE1HGb5Ny+8KFrtGu7l/sTvFggMSIcWPAC7IlQhgLM39zFBRyxYc443tTnZA7yuP
Edxga8AAHPseQnmisTZtOdef5yGRfp0p64y4png5AgMBAAGjgY4wgYswCQYDVR0T
BAIwADAdBgNVHQ4EFgQUIILdJDVdMfUAfSiYh6wBd/J96QwwPQYDVR0jBDYwNIAU
EozDywi0djGdOzAFQRq8kJa6g1OhEaQPMA0xCzAJBgNVBAMMAm1tggkAnSiwoaUL
yFMwEwYDVR0lBAwwCgYIKwYBBQUHAwIwCwYDVR0PBAQDAgeAMA0GCSqGSIb3DQEB
CwUAA4IBAQA7V9ki8Ck29gJbzIwfZXFre2TyFz3InNlKHr8rnisXJIEiBC8DPKD3
cA0Fag5xnrw6uxclOsidQH7xeU96817CcOeob1Sfv8KW0WGAkLNMC3TmVB7/LOe7
TFY8lZqAMX7qlCMr/Fax0i5hZwE02Kay5mbxy7m/JA/W8XQsGx7Mq1hXRajMgXab
xLAfB9kE57KKymshd1GujfT9MVb0EeGh3vVx7Pfb9VFAeN4obmkdivHh2Us63gtG
vSi7RSTHcxh2XuL4Egi8ayW5ojtQOoHse1WDbr9r1cADPAHmu0FPbOaWHFZ0griu
ojC1eRdS2H6do+xMw+GSUcZVz0cy0KAk
-----END CERTIFICATE-----
